(iDDoSDetection
PacketPopulation
p1
(dp2
S'numCaptures'
p3
I12
sS'totalPacketsCaptured'
p4
(dp5
S'UDP'
p6
I57
sS'ICMP'
p7
I0
sS'SYN'
p8
I0
sS'TCP'
p9
I0
sS'Any'
p10
I0
ssS'packetSamples'
p11
(lp12
(iDDoSDetection
PacketSample
p13
(dp14
S'percentages'
p15
(dp16
g6
I0
sg7
I0
sg8
I0
sg9
I0
ssS'averagePackets'
p17
(dp18
g6
I0
sg7
I0
sg8
I0
sg9
I0
sg10
I0
ssS'numPackets'
p19
(dp20
g6
I5
sg7
I0
sg8
I0
sg9
I0
sg10
I922
ssS'upperboundOuter'
p21
(dp22
g6
I0
sg7
I0
sg8
I0
sg9
I0
sg10
I0
ssS'time'
p23
ctime
struct_time
p24
((I2017
I3
I13
I20
I34
I17
I0
I72
I1
t(dtRp25
sS'upperboundInner'
p26
(dp27
g6
I0
sg7
I0
sg8
I0
sg9
I0
sg10
I0
ssba(iDDoSDetection
PacketSample
p28
(dp29
g15
(dp30
S'UDP'
p31
F0.42999999999999999
sS'ICMP'
p32
I0
sS'SYN'
p33
I0
sS'TCP'
p34
I0
ssg17
(dp35
g31
cnumpy.core.multiarray
scalar
p36
(cnumpy
dtype
p37
(S'f8'
I0
I1
tRp38
(I3
S'<'
NNNI-1
I-1
I0
tbS'\x00\x00\x00\x00\x00\x00\x14@'
tRp39
sg32
I0
sg33
I0
sg34
I0
sS'Any'
p40
g36
(g38
S'\x00\x00\x00\x00\x00\xd0\x8c@'
tRp41
ssg19
(dp42
g31
I4
sg32
I0
sg33
I0
sg34
I0
sg40
I940
ssg21
(dp43
g31
g36
(g38
S'\x00\x00\x00\x00\x00\x00\x14@'
tRp44
sg32
I0
sg33
I0
sg34
I0
sg40
g36
(g38
S'\x00\x00\x00\x00\x00\xd0\x8c@'
tRp45
ssg23
g24
((I2017
I3
I13
I20
I39
I20
I0
I72
I1
t(dtRp46
sg26
(dp47
g31
g36
(g38
S'\x00\x00\x00\x00\x00\x00\x14@'
tRp48
sg32
I0
sg33
I0
sg34
I0
sg40
g36
(g38
S'\x00\x00\x00\x00\x00\xd0\x8c@'
tRp49
ssba(iDDoSDetection
PacketSample
p50
(dp51
g15
(dp52
S'UDP'
p53
F0.46000000000000002
sS'ICMP'
p54
I0
sS'SYN'
p55
I0
sS'TCP'
p56
I0
ssg17
(dp57
g53
g36
(g38
S'\x00\x00\x00\x00\x00\x00\x12@'
tRp58
sg54
I0
sg55
I0
sg56
I0
sS'Any'
p59
g36
(g38
S'\x00\x00\x00\x00\x00\x18\x8d@'
tRp60
ssg19
(dp61
g53
I5
sg54
I0
sg55
I0
sg56
I0
sg59
I1092
ssg21
(dp62
g53
g36
(g38
S'\x00\x00\x00\x00\x00\x00\x1a@'
tRp63
sg54
I0
sg55
I0
sg56
I0
sg59
g36
(g38
S'\x00\x00\x00\x00\x008\x8e@'
tRp64
ssg23
g24
((I2017
I3
I13
I20
I44
I28
I0
I72
I1
t(dtRp65
sg26
(dp66
g53
g36
(g38
S'\x00\x00\x00\x00\x00\x00\x17@'
tRp67
sg54
I0
sg55
I0
sg56
I0
sg59
g36
(g38
S'\x00\x00\x00\x00\x00\xcc\x8d@'
tRp68
ssba(iDDoSDetection
PacketSample
p69
(dp70
g15
(dp71
S'UDP'
p72
F0.47999999999999998
sS'ICMP'
p73
I0
sS'SYN'
p74
I0
sS'TCP'
p75
I0
ssg17
(dp76
g72
g36
(g38
S'\xab\xaa\xaa\xaa\xaa\xaa\x12@'
tRp77
sg73
I0
sg74
I0
sg75
I0
sS'Any'
p78
g36
(g38
S'UUUUU\xc5\x8e@'
tRp79
ssg19
(dp80
g72
I5
sg73
I0
sg74
I0
sg75
I0
sg78
I1034
ssg21
(dp81
g72
g36
(g38
S'\x00\x00\x00\x00\x00\x00\x1a@'
tRp82
sg73
I0
sg74
I0
sg75
I0
sg78
g36
(g38
S'\x00\x00\x00\x00\x00\xdc\x93@'
tRp83
ssg23
g24
((I2017
I3
I13
I20
I49
I32
I0
I72
I1
t(dtRp84
sg26
(dp85
g72
g36
(g38
S'\x00\x00\x00\x00\x00\x00\x17@'
tRp86
sg73
I0
sg74
I0
sg75
I0
sg78
g36
(g38
S'\x00\x00\x00\x00\x00\xde\x91@'
tRp87
ssba(iDDoSDetection
PacketSample
p88
(dp89
g15
(dp90
S'UDP'
p91
F0.48999999999999999
sS'ICMP'
p92
I0
sS'SYN'
p93
I0
sS'TCP'
p94
I0
ssg17
(dp95
g91
g36
(g38
S'\x00\x00\x00\x00\x00\x00\x13@'
tRp96
sg92
I0
sg93
I0
sg94
I0
sS'Any'
p97
g36
(g38
S'\x00\x00\x00\x00\x00(\x8f@'
tRp98
ssg19
(dp99
g91
I5
sg92
I0
sg93
I0
sg94
I0
sg97
I1017
ssg21
(dp100
g91
g36
(g38
S'\x00\x00\x00\x00\x00\x00\x17@'
tRp101
sg92
I0
sg93
I0
sg94
I0
sg97
g36
(g38
S'\x00\x00\x00\x00\x00\xe8\x95@'
tRp102
ssg23
g24
((I2017
I3
I13
I20
I54
I40
I0
I72
I1
t(dtRp103
sg26
(dp104
g91
g36
(g38
S'\x00\x00\x00\x00\x00\x80\x15@'
tRp105
sg92
I0
sg93
I0
sg94
I0
sg97
g36
(g38
S'\x00\x00\x00\x00\x00B\x93@'
tRp106
ssba(iDDoSDetection
PacketSample
p107
(dp108
g15
(dp109
S'UDP'
p110
F0.46000000000000002
sS'ICMP'
p111
I0
sS'SYN'
p112
I0
sS'TCP'
p113
I0
ssg17
(dp114
g110
g36
(g38
S'333333\x13@'
tRp115
sg111
I0
sg112
I0
sg113
I0
sS'Any'
p116
g36
(g38
S'\x00\x00\x00\x00\x00H\x8f@'
tRp117
ssg19
(dp118
g110
I5
sg111
I0
sg112
I0
sg113
I0
sg116
I1080
ssg21
(dp119
g110
g36
(g38
S'\x00\x00\x00\x00\x00\x00\x14@'
tRp120
sg111
I0
sg112
I0
sg113
I0
sg116
g36
(g38
S'\x00\x00\x00\x00\x00\x90\x94@'
tRp121
ssg23
g24
((I2017
I3
I13
I20
I59
I44
I0
I72
I1
t(dtRp122
sg26
(dp123
g110
g36
(g38
S'\x00\x00\x00\x00\x00\x00\x14@'
tRp124
sg111
I0
sg112
I0
sg113
I0
sg116
g36
(g38
S'\x00\x00\x00\x00\x00\\\x92@'
tRp125
ssba(iDDoSDetection
PacketSample
p126
(dp127
g15
(dp128
S'UDP'
p129
F0.39000000000000001
sS'ICMP'
p130
I0
sS'SYN'
p131
I0
sS'TCP'
p132
I0
ssg17
(dp133
g129
g36
(g38
S'UUUUUU\x13@'
tRp134
sg130
I0
sg131
I0
sg132
I0
sS'Any'
p135
g36
(g38
S'UUUUU\xb1\x8f@'
tRp136
ssg19
(dp137
g129
I4
sg130
I0
sg131
I0
sg132
I0
sg135
I1027
ssg21
(dp138
g129
g36
(g38
S'\x00\x00\x00\x00\x00\x00\x14@'
tRp139
sg130
I0
sg131
I0
sg132
I0
sg135
g36
(g38
S'\x00\x00\x00\x00\x00\xff\x95@'
tRp140
ssg23
g24
((I2017
I3
I13
I21
I4
I47
I0
I72
I1
t(dtRp141
sg26
(dp142
g129
g36
(g38
S'\x00\x00\x00\x00\x00\x00\x14@'
tRp143
sg130
I0
sg131
I0
sg132
I0
sg135
g36
(g38
S'\x00\x00\x00\x00\x80o\x93@'
tRp144
ssba(iDDoSDetection
PacketSample
p145
(dp146
g15
(dp147
S'UDP'
p148
F0.52000000000000002
sS'ICMP'
p149
I0
sS'SYN'
p150
I0
sS'TCP'
p151
I0
ssg17
(dp152
g148
g36
(g38
S'\xb7m\xdb\xb6m\xdb\x12@'
tRp153
sg149
I0
sg150
I0
sg151
I0
sS'Any'
p154
g36
(g38
S'\x00\x00\x00\x00\x00\xc0\x8f@'
tRp155
ssg19
(dp156
g148
I5
sg149
I0
sg150
I0
sg151
I0
sg154
I962
ssg21
(dp157
g148
g36
(g38
S'\x00\x00\x00\x00\x00\x00\x1a@'
tRp158
sg149
I0
sg150
I0
sg151
I0
sg154
g36
(g38
S'\x00\x00\x00\x00\x002\x94@'
tRp159
ssg23
g24
((I2017
I3
I13
I21
I9
I50
I0
I72
I1
t(dtRp160
sg26
(dp161
g148
g36
(g38
S'\x00\x00\x00\x00\x00\x00\x17@'
tRp162
sg149
I0
sg150
I0
sg151
I0
sg154
g36
(g38
S'\x00\x00\x00\x00\x00[\x92@'
tRp163
ssba(iDDoSDetection
PacketSample
p164
(dp165
g15
(dp166
S'UDP'
p167
F0.62
sS'ICMP'
p168
I0
sS'SYN'
p169
I0
sS'TCP'
p170
I0
ssg17
(dp171
g167
g36
(g38
S'\x00\x00\x00\x00\x00\x00\x13@'
tRp172
sg168
I0
sg169
I0
sg170
I0
sS'Any'
p173
g36
(g38
S'\x00\x00\x00\x00\x00\x8a\x8f@'
tRp174
ssg19
(dp175
g167
I5
sg168
I0
sg169
I0
sg170
I0
sg173
I810
ssg21
(dp176
g167
g36
(g38
S'\x00\x00\x00\x00\x00\x00\x17@'
tRp177
sg168
I0
sg169
I0
sg170
I0
sg173
g36
(g38
S'\x00\x00\x00\x00\x00\xb0\x94@'
tRp178
ssg23
g24
((I2017
I3
I13
I21
I14
I54
I0
I72
I1
t(dtRp179
sg26
(dp180
g167
g36
(g38
S'\x00\x00\x00\x00\x00\x80\x15@'
tRp181
sg168
I0
sg169
I0
sg170
I0
sg173
g36
(g38
S'\x00\x00\x00\x00\x00\x9a\x92@'
tRp182
ssba(iDDoSDetection
PacketSample
p183
(dp184
g15
(dp185
S'UDP'
p186
F0.56000000000000005
sS'ICMP'
p187
I0
sS'SYN'
p188
I0
sS'TCP'
p189
I0
ssg17
(dp190
g186
g36
(g38
S'\xc7q\x1c\xc7q\x1c\x13@'
tRp191
sg187
I0
sg188
I0
sg189
I0
sS'Any'
p192
g36
(g38
S'\x8e\xe38\x8e\xe3\xd8\x8e@'
tRp193
ssg19
(dp194
g186
I5
sg187
I0
sg188
I0
sg189
I0
sg192
I895
ssg21
(dp195
g186
g36
(g38
S'\x00\x00\x00\x00\x00\x00\x14@'
tRp196
sg187
I0
sg188
I0
sg189
I0
sg192
g36
(g38
S'\x00\x00\x00\x00\x00\x90\x94@'
tRp197
ssg23
g24
((I2017
I3
I13
I21
I19
I59
I0
I72
I1
t(dtRp198
sg26
(dp199
g186
g36
(g38
S'\x00\x00\x00\x00\x00\x00\x14@'
tRp200
sg187
I0
sg188
I0
sg189
I0
sg192
g36
(g38
S'\x00\x00\x00\x00\x00\\\x92@'
tRp201
ssba(iDDoSDetection
PacketSample
p202
(dp203
g15
(dp204
S'UDP'
p205
F0.40999999999999998
sS'ICMP'
p206
I0
sS'SYN'
p207
I0
sS'TCP'
p208
I0
ssg17
(dp209
g205
g36
(g38
S'333333\x13@'
tRp210
sg206
I0
sg207
I0
sg208
I0
sS'Any'
p211
g36
(g38
S'33333\x8f\x8e@'
tRp212
ssg19
(dp213
g205
I4
sg206
I0
sg207
I0
sg208
I0
sg211
I975
ssg21
(dp214
g205
g36
(g38
S'\x00\x00\x00\x00\x00\x00\x14@'
tRp215
sg206
I0
sg207
I0
sg208
I0
sg211
g36
(g38
S'\x00\x00\x00\x00\x00\x1d\x95@'
tRp216
ssg23
g24
((I2017
I3
I13
I21
I25
I4
I0
I72
I1
t(dtRp217
sg26
(dp218
g205
g36
(g38
S'\x00\x00\x00\x00\x00\x00\x14@'
tRp219
sg206
I0
sg207
I0
sg208
I0
sg211
g36
(g38
S'\x00\x00\x00\x00\x80\xa2\x92@'
tRp220
ssba(iDDoSDetection
PacketSample
p221
(dp222
g15
(dp223
S'UDP'
p224
F0.56000000000000005
sS'ICMP'
p225
I0
sS'SYN'
p226
I0
sS'TCP'
p227
I0
ssg17
(dp228
g224
g36
(g38
S'\xe9\xa2\x8b.\xba\xe8\x12@'
tRp229
sg225
I0
sg226
I0
sg227
I0
sS'Any'
p230
g36
(g38
S']t\xd1E\x17\x8d\x8e@'
tRp231
ssg19
(dp232
g224
I5
sg225
I0
sg226
I0
sg227
I0
sg230
I895
ssg21
(dp233
g224
g36
(g38
S'\x00\x00\x00\x00\x00\x00\x1a@'
tRp234
sg225
I0
sg226
I0
sg227
I0
sg230
g36
(g38
S'\x00\x00\x00\x00\x00\xc4\x94@'
tRp235
ssg23
g24
((I2017
I3
I13
I21
I30
I9
I0
I72
I1
t(dtRp236
sg26
(dp237
g224
g36
(g38
S'\x00\x00\x00\x00\x00\x00\x17@'
tRp238
sg225
I0
sg226
I0
sg227
I0
sg230
g36
(g38
S'\x00\x00\x00\x00\x00o\x92@'
tRp239
ssbasb.